Certificate:
    Data:
        Version: 3 (0x2)
        Serial Number: 1 (0x1)
    Signature Algorithm: sha256WithRSAEncryption
        Issuer: CN=vpn.etheride.com
        Validity
            Not Before: Jun 26 07:26:17 2015 GMT
            Not After : Jun 23 07:26:17 2025 GMT
        Subject: CN=vpn.etheride.com
        Subject Public Key Info:
            Public Key Algorithm: rsaEncryption
                Public-Key: (2048 bit)
                Modulus:
                    00:b8:44:89:5d:0e:fc:f4:22:55:c5:f7:6d:75:7c:
                    23:34:1c:6e:ef:37:60:57:d5:24:b9:62:95:e6:e1:
                    40:ff:49:60:10:26:9c:8e:0b:75:63:0b:c6:42:68:
                    84:55:2a:c4:12:9e:65:24:f1:0a:5d:96:d4:59:2e:
                    6e:a5:2d:68:05:01:09:0a:f3:c0:cb:5c:e0:62:a9:
                    0b:24:a9:77:38:09:23:2a:d6:42:f6:a0:f7:19:82:
                    0c:e7:d4:84:3b:d2:7e:21:a2:1c:3e:1f:e1:89:0a:
                    76:30:25:31:14:d5:30:5c:45:f1:82:fd:ab:43:9b:
                    5e:52:37:5f:1f:07:4a:87:78:53:b3:35:d4:10:4f:
                    55:ca:f5:48:54:c8:b6:99:67:13:4c:11:0a:66:0f:
                    a1:da:d8:c4:82:3a:6b:ab:05:7b:11:a0:6c:a3:8f:
                    b2:b2:7f:cc:4f:f1:f9:da:dc:e8:dc:f7:2f:13:3b:
                    56:17:4b:5f:73:24:48:0b:ff:c0:9f:c3:6a:bb:4f:
                    d5:8e:08:10:06:a8:55:8a:29:c7:b9:f7:89:20:b9:
                    7a:d8:89:22:aa:b2:6f:6f:e8:2a:82:27:f5:d5:29:
                    c0:4a:db:be:e3:93:5c:9c:cf:29:58:c7:f5:2b:04:
                    43:5b:d8:24:68:73:ab:cc:32:18:9c:33:16:5c:78:
                    af:63
                Exponent: 65537 (0x10001)
        X509v3 extensions:
            X509v3 Basic Constraints: 
                CA:FALSE
            X509v3 Subject Key Identifier: 
                59:CE:7D:E9:EE:54:3B:2A:AB:B2:97:99:33:33:5A:47:00:DE:35:EB
            X509v3 Authority Key Identifier: 
                keyid:1B:08:16:48:81:8E:77:0F:E4:6E:67:F0:38:CB:2E:E9:57:83:73:7E
                DirName:/CN=vpn.etheride.com
                serial:A6:77:51:53:DF:F8:02:FD

            X509v3 Extended Key Usage: 
                TLS Web Server Authentication
            X509v3 Key Usage: 
                Digital Signature, Key Encipherment
    Signature Algorithm: sha256WithRSAEncryption
         65:72:39:98:85:0a:03:d7:66:bb:c5:d5:df:45:eb:1e:78:19:
         4f:09:70:d2:8a:40:ed:c6:e2:e8:72:a6:3f:a4:bb:d7:64:f9:
         a5:e1:83:2d:0c:25:24:9e:27:5f:da:7c:fe:78:ee:33:ec:7a:
         db:8b:a8:6b:6e:90:e1:11:bd:08:ab:c3:29:bd:3c:ae:1b:e8:
         fb:b1:6f:a5:b9:f9:33:80:49:63:a0:8d:dc:6e:14:c5:31:64:
         46:ff:fd:e9:66:06:e3:6f:c2:51:ed:70:9e:94:5d:f6:66:00:
         ab:cd:ba:0b:e7:95:3c:37:cc:58:e0:d2:e2:72:b3:af:e0:19:
         19:e1:70:d3:89:23:57:5a:c5:2a:d3:bc:11:a7:a9:b6:01:c5:
         ef:5b:55:88:9f:c5:25:33:23:47:26:b7:92:1a:b5:0d:0d:01:
         26:ef:c4:ad:08:aa:cf:26:ca:f4:f6:b5:3c:4b:f7:d2:46:a5:
         59:a8:da:c2:7b:6e:ac:fd:52:74:6a:bc:11:10:55:d1:04:0c:
         62:af:99:8f:14:57:59:c4:2c:2c:89:1c:57:aa:c5:ae:0f:f4:
         68:38:53:40:a2:43:f8:aa:b5:28:70:11:fa:c1:eb:76:b0:66:
         f4:c4:61:24:74:be:80:55:30:de:81:11:77:bf:bf:91:e4:04:
         49:b0:17:36
-----BEGIN CERTIFICATE-----
MIIDTjCCAjagAwIBAgIBATANBgkqhkiG9w0BAQsFADAbMRkwFwYDVQQDDBB2cG4u
ZXRoZXJpZGUuY29tMB4XDTE1MDYyNjA3MjYxN1oXDTI1MDYyMzA3MjYxN1owGzEZ
MBcGA1UEAwwQdnBuLmV0aGVyaWRlLmNvbTCCASIwDQYJKoZIhvcNAQEBBQADggEP
ADCCAQoCggEBALhEiV0O/PQiVcX3bXV8IzQcbu83YFfVJLlilebhQP9JYBAmnI4L
dWMLxkJohFUqxBKeZSTxCl2W1FkubqUtaAUBCQrzwMtc4GKpCySpdzgJIyrWQvag
9xmCDOfUhDvSfiGiHD4f4YkKdjAlMRTVMFxF8YL9q0ObXlI3Xx8HSod4U7M11BBP
Vcr1SFTItplnE0wRCmYPodrYxII6a6sFexGgbKOPsrJ/zE/x+drc6Nz3LxM7VhdL
X3MkSAv/wJ/DartP1Y4IEAaoVYopx7n3iSC5etiJIqqyb2/oKoIn9dUpwErbvuOT
XJzPKVjH9SsEQ1vYJGhzq8wyGJwzFlx4r2MCAwEAAaOBnDCBmTAJBgNVHRMEAjAA
MB0GA1UdDgQWBBRZzn3p7lQ7Kquyl5kzM1pHAN416zBLBgNVHSMERDBCgBQbCBZI
gY53D+RuZ/A4yy7pV4NzfqEfpB0wGzEZMBcGA1UEAwwQdnBuLmV0aGVyaWRlLmNv
bYIJAKZ3UVPf+AL9MBMGA1UdJQQMMAoGCCsGAQUFBwMBMAsGA1UdDwQEAwIFoDAN
BgkqhkiG9w0BAQsFAAOCAQEAZXI5mIUKA9dmu8XV30XrHngZTwlw0opA7cbi6HKm
P6S712T5peGDLQwlJJ4nX9p8/njuM+x624uoa26Q4RG9CKvDKb08rhvo+7Fvpbn5
M4BJY6CN3G4UxTFkRv/96WYG42/CUe1wnpRd9mYAq826C+eVPDfMWODS4nKzr+AZ
GeFw04kjV1rFKtO8EaeptgHF71tViJ/FJTMjRya3khq1DQ0BJu/ErQiqzybK9Pa1
PEv30kalWajawnturP1SdGq8ERBV0QQMYq+ZjxRXWcQsLIkcV6rFrg/0aDhTQKJD
+Kq1KHAR+sHrdrBm9MRhJHS+gFUw3oERd7+/keQESbAXNg==
-----END CERTIFICATE-----
